target datalayout = "e-m:e-p270:32:32-p271:32:32-p272:64:64-i64:64-i128:128-f80:128-n8:16:32:64-S128"
target triple = "x86_64-pc-linux-gnu"

%struct.Agdatadict_s = type { %struct.Agrec_s, %struct.anon }
%struct.Agrec_s = type { ptr, ptr }
%struct.anon = type { ptr, ptr, ptr }
%struct.Agattr_s = type { %struct.Agrec_s, ptr, ptr }

; Function Attrs: nounwind uwtable
define internal zeroext i1 @irrelevant_subgraph(ptr noundef %0) #0 {
  %2 = alloca i1, align 1
  %3 = alloca ptr, align 8
  %4 = alloca i32, align 4
  %5 = alloca i32, align 4
  %6 = alloca ptr, align 8
  %7 = alloca ptr, align 8
  %8 = alloca ptr, align 8
  %9 = alloca ptr, align 8
  %10 = alloca ptr, align 8
  store ptr %0, ptr %3, align 8
  %11 = load ptr, ptr %3, align 8
  %12 = call ptr @agnameof(ptr noundef %11)
  store ptr %12, ptr %10, align 8
  %13 = load ptr, ptr %10, align 8
  %14 = icmp ne ptr %13, null
  br i1 %14, label %15, label %22

15:                                               ; preds = %1
  %16 = load ptr, ptr %10, align 8
  %17 = getelementptr inbounds i8, ptr %16, i64 0
  %18 = load i8, ptr %17, align 1
  %19 = sext i8 %18 to i32
  %20 = icmp ne i32 %19, 37
  br i1 %20, label %21, label %22

21:                                               ; preds = %15
  store i1 false, ptr %2, align 1
  br label %106

22:                                               ; preds = %15, %1
  %23 = load ptr, ptr %3, align 8
  %24 = call ptr @agattrrec(ptr noundef %23)
  store ptr %24, ptr %6, align 8
  %25 = icmp ne ptr %24, null
  br i1 %25, label %26, label %84

26:                                               ; preds = %22
  %27 = load ptr, ptr %3, align 8
  %28 = call ptr @agparent(ptr noundef %27)
  %29 = call ptr @agattrrec(ptr noundef %28)
  store ptr %29, ptr %7, align 8
  %30 = icmp ne ptr %29, null
  br i1 %30, label %31, label %84

31:                                               ; preds = %26
  %32 = load ptr, ptr %3, align 8
  %33 = call ptr @agroot(ptr noundef %32)
  %34 = call ptr @agattrrec(ptr noundef %33)
  store ptr %34, ptr %8, align 8
  %35 = load ptr, ptr %8, align 8
  %36 = getelementptr inbounds %struct.Agattr_s, ptr %35, i32 0, i32 1
  %37 = load ptr, ptr %36, align 8
  %38 = call i32 @dtsize(ptr noundef %37)
  store i32 %38, ptr %5, align 4
  store i32 0, ptr %4, align 4
  br label %39

39:                                               ; preds = %80, %31
  %40 = load i32, ptr %4, align 4
  %41 = load i32, ptr %5, align 4
  %42 = icmp slt i32 %40, %41
  br i1 %42, label %43, label %83

43:                                               ; preds = %39
  %44 = load ptr, ptr %6, align 8
  %45 = getelementptr inbounds %struct.Agattr_s, ptr %44, i32 0, i32 2
  %46 = load ptr, ptr %45, align 8
  %47 = load i32, ptr %4, align 4
  %48 = sext i32 %47 to i64
  %49 = getelementptr inbounds ptr, ptr %46, i64 %48
  %50 = load ptr, ptr %49, align 8
  %51 = icmp ne ptr %50, null
  br i1 %51, label %52, label %79

52:                                               ; preds = %43
  %53 = load ptr, ptr %7, align 8
  %54 = getelementptr inbounds %struct.Agattr_s, ptr %53, i32 0, i32 2
  %55 = load ptr, ptr %54, align 8
  %56 = load i32, ptr %4, align 4
  %57 = sext i32 %56 to i64
  %58 = getelementptr inbounds ptr, ptr %55, i64 %57
  %59 = load ptr, ptr %58, align 8
  %60 = icmp ne ptr %59, null
  br i1 %60, label %61, label %79

61:                                               ; preds = %52
  %62 = load ptr, ptr %6, align 8
  %63 = getelementptr inbounds %struct.Agattr_s, ptr %62, i32 0, i32 2
  %64 = load ptr, ptr %63, align 8
  %65 = load i32, ptr %4, align 4
  %66 = sext i32 %65 to i64
  %67 = getelementptr inbounds ptr, ptr %64, i64 %66
  %68 = load ptr, ptr %67, align 8
  %69 = load ptr, ptr %7, align 8
  %70 = getelementptr inbounds %struct.Agattr_s, ptr %69, i32 0, i32 2
  %71 = load ptr, ptr %70, align 8
  %72 = load i32, ptr %4, align 4
  %73 = sext i32 %72 to i64
  %74 = getelementptr inbounds ptr, ptr %71, i64 %73
  %75 = load ptr, ptr %74, align 8
  %76 = call i32 @strcmp(ptr noundef %68, ptr noundef %75) #6
  %77 = icmp ne i32 %76, 0
  br i1 %77, label %78, label %79

78:                                               ; preds = %61
  store i1 false, ptr %2, align 1
  br label %106

79:                                               ; preds = %61, %52, %43
  br label %80

80:                                               ; preds = %79
  %81 = load i32, ptr %4, align 4
  %82 = add nsw i32 %81, 1
  store i32 %82, ptr %4, align 4
  br label %39

83:                                               ; preds = %39
  br label %84

84:                                               ; preds = %83, %26, %22
  %85 = load ptr, ptr %3, align 8
  %86 = call ptr @agdatadict(ptr noundef %85, i1 noundef zeroext false)
  store ptr %86, ptr %9, align 8
  %87 = load ptr, ptr %9, align 8
  %88 = icmp ne ptr %87, null
  br i1 %88, label %90, label %89

89:                                               ; preds = %84
  store i1 true, ptr %2, align 1
  br label %106

90:                                               ; preds = %84
  %91 = load ptr, ptr %9, align 8
  %92 = getelementptr inbounds %struct.Agdatadict_s, ptr %91, i32 0, i32 1
  %93 = getelementptr inbounds %struct.anon, ptr %92, i32 0, i32 0
  %94 = load ptr, ptr %93, align 8
  %95 = call i32 @dtsize(ptr noundef %94)
  %96 = icmp sgt i32 %95, 0
  br i1 %96, label %104, label %97

97:                                               ; preds = %90
  %98 = load ptr, ptr %9, align 8
  %99 = getelementptr inbounds %struct.Agdatadict_s, ptr %98, i32 0, i32 1
  %100 = getelementptr inbounds %struct.anon, ptr %99, i32 0, i32 1
  %101 = load ptr, ptr %100, align 8
  %102 = call i32 @dtsize(ptr noundef %101)
  %103 = icmp sgt i32 %102, 0
  br i1 %103, label %104, label %105

104:                                              ; preds = %97, %90
  store i1 false, ptr %2, align 1
  br label %106

105:                                              ; preds = %97
  store i1 true, ptr %2, align 1
  br label %106

106:                                              ; preds = %105, %104, %89, %78, %21
  %107 = load i1, ptr %2, align 1
  ret i1 %107
}