; Function Attrs: nounwind uwtable
define internal fastcc zeroext i1 @irrelevant_subgraph(ptr noundef nonnull %0) unnamed_addr #0 {
  %2 = tail call ptr @agnameof(ptr noundef nonnull %0) #9
  %.not = icmp eq ptr %2, null
  br i1 %.not, label %5, label %3

3:                                                ; preds = %1
  %4 = load i8, ptr %2, align 1
  %.not29 = icmp eq i8 %4, 37
  br i1 %.not29, label %5, label %.loopexit36

5:                                                ; preds = %3, %1
  %6 = tail call ptr @agattrrec(ptr noundef nonnull %0) #9
  %.not30 = icmp eq ptr %6, null
  br i1 %.not30, label %.loopexit, label %7

7:                                                ; preds = %5
  %8 = tail call ptr @agparent(ptr noundef nonnull %0) #9
  %9 = tail call ptr @agattrrec(ptr noundef %8) #9
  %.not31 = icmp eq ptr %9, null
  br i1 %.not31, label %.loopexit, label %10

10:                                               ; preds = %7
  %11 = tail call ptr @agroot(ptr noundef nonnull %0) #9
  %12 = tail call ptr @agattrrec(ptr noundef %11) #9
  %13 = getelementptr inbounds nuw i8, ptr %12, i64 16
  %14 = load ptr, ptr %13, align 8
  %15 = tail call i32 @dtsize(ptr noundef %14) #9
  %16 = icmp sgt i32 %15, 0
  br i1 %16, label %.lr.ph, label %.loopexit

.lr.ph:                                           ; preds = %10
  %17 = getelementptr inbounds nuw i8, ptr %6, i64 24
  %18 = load ptr, ptr %17, align 8
  %19 = getelementptr inbounds nuw i8, ptr %9, i64 24
  %wide.trip.count = zext nneg i32 %15 to i64
  br label %20

20:                                               ; preds = %.lr.ph, %29
  %indvars.iv = phi i64 [ 0, %.lr.ph ], [ %indvars.iv.next, %29 ]
  %21 = getelementptr inbounds nuw ptr, ptr %18, i64 %indvars.iv
  %22 = load ptr, ptr %21, align 8
  %.not33 = icmp eq ptr %22, null
  br i1 %.not33, label %29, label %23

23:                                               ; preds = %20
  %24 = load ptr, ptr %19, align 8
  %25 = getelementptr inbounds nuw ptr, ptr %24, i64 %indvars.iv
  %26 = load ptr, ptr %25, align 8
  %.not34 = icmp eq ptr %26, null
  br i1 %.not34, label %29, label %27

27:                                               ; preds = %23
  %28 = tail call i32 @strcmp(ptr noundef nonnull dereferenceable(1) %22, ptr noundef nonnull dereferenceable(1) %26) #10
  %.not35 = icmp eq i32 %28, 0
  br i1 %.not35, label %29, label %.loopexit36

29:                                               ; preds = %20, %23, %27
  %indvars.iv.next = add nuw nsw i64 %indvars.iv, 1
  %exitcond.not = icmp eq i64 %indvars.iv.next, %wide.trip.count
  br i1 %exitcond.not, label %.loopexit, label %20

.loopexit:                                        ; preds = %29, %10, %7, %5
  %30 = tail call ptr @agdatadict(ptr noundef nonnull %0, i1 noundef zeroext false) #9
  %.not32 = icmp eq ptr %30, null
  br i1 %.not32, label %.loopexit36, label %31

31:                                               ; preds = %.loopexit
  %32 = getelementptr inbounds nuw i8, ptr %30, i64 16
  %33 = load ptr, ptr %32, align 8
  %34 = tail call i32 @dtsize(ptr noundef %33) #9
  %35 = icmp sgt i32 %34, 0
  br i1 %35, label %.loopexit36, label %36

36:                                               ; preds = %31
  %37 = getelementptr inbounds nuw i8, ptr %30, i64 24
  %38 = load ptr, ptr %37, align 8
  %39 = tail call i32 @dtsize(ptr noundef %38) #9
  %40 = icmp slt i32 %39, 1
  br label %.loopexit36

.loopexit36:                                      ; preds = %27, %36, %31, %.loopexit, %3
  %.0 = phi i1 [ false, %3 ], [ true, %.loopexit ], [ false, %31 ], [ %40, %36 ], [ false, %27 ]
  ret i1 %.0
}